; Function Attrs: mustprogress uwtable
define dso_local noundef zeroext i1 @_ZNK3net14QuicSpdyStream13IsDoneReadingEv(ptr noundef nonnull align 8 dereferenceable(664) %this) local_unnamed_addr #0 align 2 {
entry:
  %headers_decompressed_.i = getelementptr inbounds i8, ptr %this, i64 400
  %0 = load i8, ptr %headers_decompressed_.i, align 8
  %1 = and i8 %0, 1
  %tobool.not.i = icmp eq i8 %1, 0
  br i1 %tobool.not.i, label %_ZNK3net14QuicSpdyStream22FinishedReadingHeadersEv.exit, label %land.lhs.true.i

land.lhs.true.i:                                  ; preds = %entry
  %decompressed_headers_.i = getelementptr inbounds i8, ptr %this, i64 408
  %call.i = tail call noundef zeroext i1 @_ZNKSt7__cxx1112basic_stringIcSt11char_traitsIcESaIcEE5emptyEv(ptr noundef nonnull align 8 dereferenceable(32) %decompressed_headers_.i) #12
  br i1 %call.i, label %land.rhs.i, label %_ZNK3net14QuicSpdyStream22FinishedReadingHeadersEv.exit

land.rhs.i:                                       ; preds = %land.lhs.true.i
  %_M_finish.i.i.i = getelementptr inbounds i8, ptr %this, i64 496
  %_M_start.i.i.i = getelementptr inbounds i8, ptr %this, i64 464
  %2 = load ptr, ptr %_M_finish.i.i.i, align 8
  %3 = load ptr, ptr %_M_start.i.i.i, align 8
  %cmp.i.i.i.i = icmp eq ptr %2, %3
  br label %_ZNK3net14QuicSpdyStream22FinishedReadingHeadersEv.exit

_ZNK3net14QuicSpdyStream22FinishedReadingHeadersEv.exit: ; preds = %entry, %land.lhs.true.i, %land.rhs.i
  %4 = phi i1 [ false, %land.lhs.true.i ], [ false, %entry ], [ %cmp.i.i.i.i, %land.rhs.i ]
  %sequencer_.i = getelementptr inbounds i8, ptr %this, i64 40
  %call3 = tail call noundef zeroext i1 @_ZNK3net19QuicStreamSequencer8IsClosedEv(ptr noundef nonnull align 8 dereferenceable(169) %sequencer_.i)
  %fin_received_.i.i = getelementptr inbounds i8, ptr %this, i64 260
  %5 = load i8, ptr %fin_received_.i.i, align 4
  %6 = and i8 %5, 1
  %tobool.i.not.i = icmp eq i8 %6, 0
  br i1 %tobool.i.not.i, label %_ZNK3net14QuicSpdyStream23FinishedReadingTrailersEv.exit, label %if.else.i

if.else.i:                                        ; preds = %_ZNK3net14QuicSpdyStream22FinishedReadingHeadersEv.exit
  %trailers_decompressed_.i = getelementptr inbounds i8, ptr %this, i64 536
  %7 = load i8, ptr %trailers_decompressed_.i, align 8
  %8 = and i8 %7, 1
  %tobool.not.i2 = icmp eq i8 %8, 0
  br i1 %tobool.not.i2, label %_ZNK3net14QuicSpdyStream23FinishedReadingTrailersEv.exit, label %if.else3.i

if.else3.i:                                       ; preds = %if.else.i
  %trailers_delivered_.i = getelementptr inbounds i8, ptr %this, i64 537
  %9 = load i8, ptr %trailers_delivered_.i, align 1
  %10 = and i8 %9, 1
  %tobool4.not.i = icmp eq i8 %10, 0
  br i1 %tobool4.not.i, label %_ZNK3net14QuicSpdyStream23FinishedReadingTrailersEv.exit, label %land.rhs.i3

land.rhs.i3:                                      ; preds = %if.else3.i
  %decompressed_trailers_.i = getelementptr inbounds i8, ptr %this, i64 544
  %call5.i = tail call noundef zeroext i1 @_ZNKSt7__cxx1112basic_stringIcSt11char_traitsIcESaIcEE5emptyEv(ptr noundef nonnull align 8 dereferenceable(32) %decompressed_trailers_.i) #12
  br label %_ZNK3net14QuicSpdyStream23FinishedReadingTrailersEv.exit

_ZNK3net14QuicSpdyStream23FinishedReadingTrailersEv.exit: ; preds = %_ZNK3net14QuicSpdyStream22FinishedReadingHeadersEv.exit, %if.else.i, %if.else3.i, %land.rhs.i3
  %retval.0.i = phi i1 [ false, %_ZNK3net14QuicSpdyStream22FinishedReadingHeadersEv.exit ], [ true, %if.else.i ], [ false, %if.else3.i ], [ %call5.i, %land.rhs.i3 ]
  %spec.select = and i1 %call3, %retval.0.i
  %spec.select1 = and i1 %4, %spec.select
  ret i1 %spec.select1
}